target datalayout = "e-m:e-p270:32:32-p271:32:32-p272:64:64-i64:64-i128:128-f80:128-n8:16:32:64-S128"
target triple = "x86_64-pc-linux-gnu"

%struct.jdwpPacket = type { %union.anon }
%union.anon = type { %struct.jdwpCmdPacket }
%struct.jdwpCmdPacket = type { i32, i32, i8, i8, i8, ptr }
%struct.PacketInputStream = type { ptr, i32, i16, %struct.jdwpPacket, ptr }

; Function Attrs: nounwind uwtable
define internal zeroext i16 @readBytes(ptr noundef %0, ptr noundef %1, i32 noundef %2) #0 {
  %4 = alloca i16, align 2
  %5 = alloca ptr, align 8
  %6 = alloca ptr, align 8
  %7 = alloca i32, align 4
  store ptr %0, ptr %5, align 8
  store ptr %1, ptr %6, align 8
  store i32 %2, ptr %7, align 4
  %8 = load ptr, ptr %5, align 8
  %9 = getelementptr inbounds %struct.PacketInputStream, ptr %8, i32 0, i32 2
  %10 = load i16, ptr %9, align 4
  %11 = icmp ne i16 %10, 0
  br i1 %11, label %12, label %16

12:                                               ; preds = %3
  %13 = load ptr, ptr %5, align 8
  %14 = getelementptr inbounds %struct.PacketInputStream, ptr %13, i32 0, i32 2
  %15 = load i16, ptr %14, align 4
  store i16 %15, ptr %4, align 2
  br label %53

16:                                               ; preds = %3
  %17 = load i32, ptr %7, align 4
  %18 = load ptr, ptr %5, align 8
  %19 = getelementptr inbounds %struct.PacketInputStream, ptr %18, i32 0, i32 1
  %20 = load i32, ptr %19, align 8
  %21 = icmp sgt i32 %17, %20
  br i1 %21, label %22, label %28

22:                                               ; preds = %16
  %23 = load ptr, ptr %5, align 8
  %24 = getelementptr inbounds %struct.PacketInputStream, ptr %23, i32 0, i32 2
  store i16 113, ptr %24, align 4
  %25 = load ptr, ptr %5, align 8
  %26 = getelementptr inbounds %struct.PacketInputStream, ptr %25, i32 0, i32 2
  %27 = load i16, ptr %26, align 4
  store i16 %27, ptr %4, align 2
  br label %53

28:                                               ; preds = %16
  %29 = load ptr, ptr %6, align 8
  %30 = icmp ne ptr %29, null
  br i1 %30, label %31, label %38

31:                                               ; preds = %28
  %32 = load ptr, ptr %6, align 8
  %33 = load ptr, ptr %5, align 8
  %34 = getelementptr inbounds %struct.PacketInputStream, ptr %33, i32 0, i32 0
  %35 = load ptr, ptr %34, align 8
  %36 = load i32, ptr %7, align 4
  %37 = sext i32 %36 to i64
  call void @llvm.memcpy.p0.p0.i64(ptr align 1 %32, ptr align 1 %35, i64 %37, i1 false)
  br label %38

38:                                               ; preds = %31, %28
  %39 = load i32, ptr %7, align 4
  %40 = load ptr, ptr %5, align 8
  %41 = getelementptr inbounds %struct.PacketInputStream, ptr %40, i32 0, i32 0
  %42 = load ptr, ptr %41, align 8
  %43 = sext i32 %39 to i64
  %44 = getelementptr inbounds i8, ptr %42, i64 %43
  store ptr %44, ptr %41, align 8
  %45 = load i32, ptr %7, align 4
  %46 = load ptr, ptr %5, align 8
  %47 = getelementptr inbounds %struct.PacketInputStream, ptr %46, i32 0, i32 1
  %48 = load i32, ptr %47, align 8
  %49 = sub nsw i32 %48, %45
  store i32 %49, ptr %47, align 8
  %50 = load ptr, ptr %5, align 8
  %51 = getelementptr inbounds %struct.PacketInputStream, ptr %50, i32 0, i32 2
  %52 = load i16, ptr %51, align 4
  store i16 %52, ptr %4, align 2
  br label %53

53:                                               ; preds = %38, %22, %12
  %54 = load i16, ptr %4, align 2
  ret i16 %54
}

; Function Attrs: nounwind uwtable
define hidden i64 @inStream_readLong(ptr noundef %0) #0 {
  %2 = alloca ptr, align 8
  %3 = alloca i64, align 8
  store ptr %0, ptr %2, align 8
  store i64 0, ptr %3, align 8
  %4 = load ptr, ptr %2, align 8
  %5 = call zeroext i16 @readBytes(ptr noundef %4, ptr noundef %3, i32 noundef 8)
  %6 = load i64, ptr %3, align 8
  %7 = shl i64 %6, 56
  %8 = load i64, ptr %3, align 8
  %9 = and i64 %8, 65280
  %10 = shl i64 %9, 40
  %11 = or i64 %7, %10
  %12 = load i64, ptr %3, align 8
  %13 = and i64 %12, 16711680
  %14 = shl i64 %13, 24
  %15 = or i64 %11, %14
  %16 = load i64, ptr %3, align 8
  %17 = and i64 %16, 4278190080
  %18 = shl i64 %17, 8
  %19 = or i64 %15, %18
  %20 = load i64, ptr %3, align 8
  %21 = and i64 %20, 1095216660480
  %22 = ashr i64 %21, 8
  %23 = or i64 %19, %22
  %24 = load i64, ptr %3, align 8
  %25 = and i64 %24, 280375465082880
  %26 = ashr i64 %25, 24
  %27 = or i64 %23, %26
  %28 = load i64, ptr %3, align 8
  %29 = and i64 %28, 71776119061217280
  %30 = ashr i64 %29, 40
  %31 = or i64 %27, %30
  %32 = load i64, ptr %3, align 8
  %33 = and i64 %32, -72057594037927936
  %34 = lshr i64 %33, 56
  %35 = or i64 %31, %34
  ret i64 %35
}

; Function Attrs: nounwind uwtable
define hidden ptr @inStream_readObjectRef(ptr noundef %0, ptr noundef %1) #0 {
  %3 = alloca ptr, align 8
  %4 = alloca ptr, align 8
  %5 = alloca ptr, align 8
  %6 = alloca ptr, align 8
  %7 = alloca ptr, align 8
  %8 = alloca i64, align 8
  store ptr %0, ptr %4, align 8
  store ptr %1, ptr %5, align 8
  %9 = load ptr, ptr %5, align 8
  %10 = call i64 @inStream_readLong(ptr noundef %9)
  store i64 %10, ptr %8, align 8
  %11 = load ptr, ptr %5, align 8
  %12 = getelementptr inbounds %struct.PacketInputStream, ptr %11, i32 0, i32 2
  %13 = load i16, ptr %12, align 4
  %14 = icmp ne i16 %13, 0
  br i1 %14, label %15, label %16

15:                                               ; preds = %2
  store ptr null, ptr %3, align 8
  br label %43

16:                                               ; preds = %2
  %17 = load i64, ptr %8, align 8
  %18 = icmp eq i64 %17, 0
  br i1 %18, label %19, label %20

19:                                               ; preds = %16
  store ptr null, ptr %3, align 8
  br label %43

20:                                               ; preds = %16
  %21 = load ptr, ptr %4, align 8
  %22 = load i64, ptr %8, align 8
  %23 = call ptr @commonRef_idToRef(ptr noundef %21, i64 noundef %22)
  store ptr %23, ptr %6, align 8
  %24 = load ptr, ptr %6, align 8
  %25 = icmp eq ptr %24, null
  br i1 %25, label %26, label %29

26:                                               ; preds = %20
  %27 = load ptr, ptr %5, align 8
  %28 = getelementptr inbounds %struct.PacketInputStream, ptr %27, i32 0, i32 2
  store i16 20, ptr %28, align 4
  store ptr null, ptr %3, align 8
  br label %43

29:                                               ; preds = %20
  %30 = load ptr, ptr %5, align 8
  %31 = getelementptr inbounds %struct.PacketInputStream, ptr %30, i32 0, i32 4
  %32 = load ptr, ptr %31, align 8
  %33 = call ptr @bagAdd(ptr noundef %32)
  store ptr %33, ptr %7, align 8
  %34 = load ptr, ptr %7, align 8
  %35 = icmp eq ptr %34, null
  br i1 %35, label %36, label %39

36:                                               ; preds = %29
  %37 = load ptr, ptr %4, align 8
  %38 = load ptr, ptr %6, align 8
  call void @commonRef_idToRef_delete(ptr noundef %37, ptr noundef %38)
  store ptr null, ptr %3, align 8
  br label %43

39:                                               ; preds = %29
  %40 = load ptr, ptr %6, align 8
  %41 = load ptr, ptr %7, align 8
  store ptr %40, ptr %41, align 8
  %42 = load ptr, ptr %6, align 8
  store ptr %42, ptr %3, align 8
  br label %43

43:                                               ; preds = %39, %36, %26, %19, %15
  %44 = load ptr, ptr %3, align 8
  ret ptr %44
}