; Function Attrs: nounwind uwtable
define hidden ptr @inStream_readObjectRef(ptr noundef %0, ptr nocapture noundef %1) local_unnamed_addr #0 {
  %3 = getelementptr inbounds i8, ptr %1, i64 12
  %4 = load i16, ptr %3, align 4
  %.not.i.i = icmp eq i16 %4, 0
  br i1 %.not.i.i, label %5, label %inStream_readLong.exit.thread

5:                                                ; preds = %2
  %6 = getelementptr inbounds i8, ptr %1, i64 8
  %7 = load i32, ptr %6, align 8
  %8 = icmp slt i32 %7, 8
  br i1 %8, label %9, label %inStream_readLong.exit

9:                                                ; preds = %5
  store i16 113, ptr %3, align 4
  br label %inStream_readLong.exit.thread

inStream_readLong.exit:                           ; preds = %5
  %10 = load ptr, ptr %1, align 8
  %.0.copyload.i = load i64, ptr %10, align 1
  %11 = getelementptr inbounds i8, ptr %10, i64 8
  store ptr %11, ptr %1, align 8
  %12 = add nsw i32 %7, -8
  store i32 %12, ptr %6, align 8
  %13 = icmp eq i64 %.0.copyload.i, 0
  br i1 %13, label %inStream_readLong.exit.thread, label %14

14:                                               ; preds = %inStream_readLong.exit
  %15 = tail call i64 @llvm.bswap.i64(i64 %.0.copyload.i)
  %16 = tail call ptr @commonRef_idToRef(ptr noundef %0, i64 noundef %15) #9
  %17 = icmp eq ptr %16, null
  br i1 %17, label %18, label %19

18:                                               ; preds = %14
  store i16 20, ptr %3, align 4
  br label %inStream_readLong.exit.thread

19:                                               ; preds = %14
  %20 = getelementptr inbounds i8, ptr %1, i64 40
  %21 = load ptr, ptr %20, align 8
  %22 = tail call ptr @bagAdd(ptr noundef %21) #9
  %23 = icmp eq ptr %22, null
  br i1 %23, label %24, label %25

24:                                               ; preds = %19
  tail call void @commonRef_idToRef_delete(ptr noundef %0, ptr noundef nonnull %16) #9
  br label %inStream_readLong.exit.thread

25:                                               ; preds = %19
  store ptr %16, ptr %22, align 8
  br label %inStream_readLong.exit.thread

inStream_readLong.exit.thread:                    ; preds = %2, %9, %inStream_readLong.exit, %25, %24, %18
  %.0 = phi ptr [ null, %18 ], [ null, %24 ], [ %16, %25 ], [ null, %inStream_readLong.exit ], [ null, %9 ], [ null, %2 ]
  ret ptr %.0
}